; Function Attrs: mustprogress uwtable
define internal fastcc void @_ZN21PXR_INTERNAL_NS_pegtl6tracerINS_13tracer_traitsILb1ELb1ELm2ELm8EEEE5raiseIN32pxrInternal_v0_24__pxrReserved__12_GLOBAL__N_112VariableNameINS6_20QuotedStringVariableEEENS_12memory_inputILNS_13tracking_modeE0ENS_5ascii3eol7lf_crlfENSt7__cxx1112basic_stringIcSt11char_traitsIcESaIcEEEEEJRNS6_13ParserContextEEEEvRKT0_DpOT1_(ptr %.16.val, ptr %.24.val) unnamed_addr #3 align 2 {
  %1 = ptrtoint ptr %.24.val to i64
  %2 = ptrtoint ptr %.16.val to i64
  %3 = sub i64 %1, %2
  %4 = lshr exact i64 %3, 2
  %5 = trunc i64 %4 to i32
  %6 = add i32 %5, 8
  %7 = tail call noundef nonnull align 8 dereferenceable(8) ptr @_ZStlsIcSt11char_traitsIcEERSt13basic_ostreamIT_T0_ES6_St5_Setw(ptr noundef nonnull align 8 dereferenceable(8) @_ZSt4cerr, i32 %6)
  %8 = tail call noundef nonnull align 8 dereferenceable(8) ptr @_ZStlsISt11char_traitsIcEERSt13basic_ostreamIcT_ES5_c(ptr noundef nonnull align 8 dereferenceable(8) %7, i8 noundef signext 32)
  %9 = tail call noundef nonnull align 8 dereferenceable(8) ptr @_ZSt16__ostream_insertIcSt11char_traitsIcEERSt13basic_ostreamIT_T0_ES6_PKS3_l(ptr noundef nonnull align 8 dereferenceable(8) %8, ptr noundef nonnull @.str.57, i64 noundef 7)
  %10 = tail call noundef nonnull align 8 dereferenceable(8) ptr @_ZStlsISt11char_traitsIcEERSt13basic_ostreamIcT_ES5_PKc(ptr noundef nonnull align 8 dereferenceable(8) %9, ptr noundef nonnull @.str.56)
  %11 = tail call noundef nonnull align 8 dereferenceable(8) ptr @_ZSt16__ostream_insertIcSt11char_traitsIcEERSt13basic_ostreamIT_T0_ES6_PKS3_l(ptr noundef nonnull align 8 dereferenceable(8) %10, ptr noundef nonnull @.str.45, i64 noundef 3)
  %12 = tail call noundef nonnull align 8 dereferenceable(8) ptr @_ZStlsISt11char_traitsIcEERSt13basic_ostreamIcT_ES5_c(ptr noundef nonnull align 8 dereferenceable(8) %11, i8 noundef signext 32)
  %13 = tail call noundef nonnull align 8 dereferenceable(8) ptr @_ZSt16__ostream_insertIcSt11char_traitsIcEERSt13basic_ostreamIT_T0_ES6_PKS3_l(ptr noundef nonnull align 8 dereferenceable(8) %12, ptr noundef nonnull @.str.46, i64 noundef 5)
  %14 = tail call noundef nonnull align 8 dereferenceable(8) ptr @_ZSt16__ostream_insertIcSt11char_traitsIcEERSt13basic_ostreamIT_T0_ES6_PKS3_l(ptr noundef nonnull align 8 dereferenceable(8) %13, ptr noundef nonnull getelementptr inbounds (i8, ptr @.str.71, i64 56), i64 noundef 148)
  %15 = tail call noundef nonnull align 8 dereferenceable(8) ptr @_ZSt16__ostream_insertIcSt11char_traitsIcEERSt13basic_ostreamIT_T0_ES6_PKS3_l(ptr noundef nonnull align 8 dereferenceable(8) %14, ptr noundef nonnull @.str.45, i64 noundef 3)
  %16 = tail call noundef nonnull align 8 dereferenceable(8) ptr @_ZStlsISt11char_traitsIcEERSt13basic_ostreamIcT_ES5_c(ptr noundef nonnull align 8 dereferenceable(8) %15, i8 noundef signext 10)
  ret void
}